target datalayout = "e-m:e-p270:32:32-p271:32:32-p272:64:64-i64:64-i128:128-f80:128-n8:16:32:64-S128"
target triple = "x86_64-pc-linux-gnu"

%struct.hb_draw_funcs_t = type { %struct.hb_object_header_t, %struct.anon, ptr, ptr }
%struct.hb_object_header_t = type { %struct.hb_reference_count_t, %struct.hb_atomic_int_t, %struct.hb_atomic_ptr_t }
%struct.hb_reference_count_t = type { %struct.hb_atomic_int_t }
%struct.hb_atomic_int_t = type { i32 }
%struct.hb_atomic_ptr_t = type { ptr }
%struct.anon = type { ptr, ptr, ptr, ptr, ptr }
%struct.anon.1 = type { ptr, ptr, ptr, ptr, ptr }
%struct.hb_draw_state_t = type { i32, float, float, float, float, %union._hb_var_num_t, %union._hb_var_num_t, %union._hb_var_num_t, %union._hb_var_num_t, %union._hb_var_num_t, %union._hb_var_num_t, %union._hb_var_num_t }
%union._hb_var_num_t = type { float }

; Function Attrs: mustprogress uwtable
define linkonce_odr hidden void @_ZN15hb_draw_funcs_t12emit_move_toEPvR15hb_draw_state_tff(ptr noundef nonnull align 8 dereferenceable(72) %0, ptr noundef %1, ptr noundef nonnull align 4 dereferenceable(48) %2, float noundef %3, float noundef %4) #0 comdat align 2 {
  %6 = alloca ptr, align 8
  %7 = alloca ptr, align 8
  %8 = alloca ptr, align 8
  %9 = alloca float, align 4
  %10 = alloca float, align 4
  store ptr %0, ptr %6, align 8
  store ptr %1, ptr %7, align 8
  store ptr %2, ptr %8, align 8
  store float %3, ptr %9, align 4
  store float %4, ptr %10, align 4
  %11 = load ptr, ptr %6, align 8
  %12 = getelementptr inbounds %struct.hb_draw_funcs_t, ptr %11, i32 0, i32 1
  %13 = getelementptr inbounds %struct.anon, ptr %12, i32 0, i32 0
  %14 = load ptr, ptr %13, align 8
  %15 = load ptr, ptr %7, align 8
  %16 = load ptr, ptr %8, align 8
  %17 = load float, ptr %9, align 4
  %18 = load float, ptr %10, align 4
  %19 = getelementptr inbounds %struct.hb_draw_funcs_t, ptr %11, i32 0, i32 2
  %20 = load ptr, ptr %19, align 8
  %21 = icmp ne ptr %20, null
  br i1 %21, label %23, label %22

22:                                               ; preds = %5
  br label %28

23:                                               ; preds = %5
  %24 = getelementptr inbounds %struct.hb_draw_funcs_t, ptr %11, i32 0, i32 2
  %25 = load ptr, ptr %24, align 8
  %26 = getelementptr inbounds %struct.anon.1, ptr %25, i32 0, i32 0
  %27 = load ptr, ptr %26, align 8
  br label %28

28:                                               ; preds = %23, %22
  %29 = phi ptr [ null, %22 ], [ %27, %23 ]
  call void %14(ptr noundef %11, ptr noundef %15, ptr noundef %16, float noundef %17, float noundef %18, ptr noundef %29)
  ret void
}

; Function Attrs: mustprogress uwtable
define linkonce_odr hidden void @_ZN15hb_draw_funcs_t13emit_cubic_toEPvR15hb_draw_state_tffffff(ptr noundef nonnull align 8 dereferenceable(72) %0, ptr noundef %1, ptr noundef nonnull align 4 dereferenceable(48) %2, float noundef %3, float noundef %4, float noundef %5, float noundef %6, float noundef %7, float noundef %8) #0 comdat align 2 {
  %10 = alloca ptr, align 8
  %11 = alloca ptr, align 8
  %12 = alloca ptr, align 8
  %13 = alloca float, align 4
  %14 = alloca float, align 4
  %15 = alloca float, align 4
  %16 = alloca float, align 4
  %17 = alloca float, align 4
  %18 = alloca float, align 4
  store ptr %0, ptr %10, align 8
  store ptr %1, ptr %11, align 8
  store ptr %2, ptr %12, align 8
  store float %3, ptr %13, align 4
  store float %4, ptr %14, align 4
  store float %5, ptr %15, align 4
  store float %6, ptr %16, align 4
  store float %7, ptr %17, align 4
  store float %8, ptr %18, align 4
  %19 = load ptr, ptr %10, align 8
  %20 = getelementptr inbounds %struct.hb_draw_funcs_t, ptr %19, i32 0, i32 1
  %21 = getelementptr inbounds %struct.anon, ptr %20, i32 0, i32 3
  %22 = load ptr, ptr %21, align 8
  %23 = load ptr, ptr %11, align 8
  %24 = load ptr, ptr %12, align 8
  %25 = load float, ptr %13, align 4
  %26 = load float, ptr %14, align 4
  %27 = load float, ptr %15, align 4
  %28 = load float, ptr %16, align 4
  %29 = load float, ptr %17, align 4
  %30 = load float, ptr %18, align 4
  %31 = getelementptr inbounds %struct.hb_draw_funcs_t, ptr %19, i32 0, i32 2
  %32 = load ptr, ptr %31, align 8
  %33 = icmp ne ptr %32, null
  br i1 %33, label %35, label %34

34:                                               ; preds = %9
  br label %40

35:                                               ; preds = %9
  %36 = getelementptr inbounds %struct.hb_draw_funcs_t, ptr %19, i32 0, i32 2
  %37 = load ptr, ptr %36, align 8
  %38 = getelementptr inbounds %struct.anon.1, ptr %37, i32 0, i32 3
  %39 = load ptr, ptr %38, align 8
  br label %40

40:                                               ; preds = %35, %34
  %41 = phi ptr [ null, %34 ], [ %39, %35 ]
  call void %22(ptr noundef %19, ptr noundef %23, ptr noundef %24, float noundef %25, float noundef %26, float noundef %27, float noundef %28, float noundef %29, float noundef %30, ptr noundef %41)
  ret void
}

; Function Attrs: mustprogress uwtable
define linkonce_odr hidden void @_ZN15hb_draw_funcs_t10start_pathEPvR15hb_draw_state_t(ptr noundef nonnull align 8 dereferenceable(72) %0, ptr noundef %1, ptr noundef nonnull align 4 dereferenceable(48) %2) #0 comdat align 2 {
  %4 = alloca ptr, align 8
  %5 = alloca ptr, align 8
  %6 = alloca ptr, align 8
  store ptr %0, ptr %4, align 8
  store ptr %1, ptr %5, align 8
  store ptr %2, ptr %6, align 8
  %7 = load ptr, ptr %4, align 8
  %8 = load ptr, ptr %5, align 8
  %9 = load ptr, ptr %6, align 8
  %10 = load ptr, ptr %6, align 8
  %11 = getelementptr inbounds %struct.hb_draw_state_t, ptr %10, i32 0, i32 3
  %12 = load float, ptr %11, align 4
  %13 = load ptr, ptr %6, align 8
  %14 = getelementptr inbounds %struct.hb_draw_state_t, ptr %13, i32 0, i32 4
  %15 = load float, ptr %14, align 4
  call void @_ZN15hb_draw_funcs_t12emit_move_toEPvR15hb_draw_state_tff(ptr noundef nonnull align 8 dereferenceable(72) %7, ptr noundef %8, ptr noundef nonnull align 4 dereferenceable(48) %9, float noundef %12, float noundef %15)
  %16 = load ptr, ptr %6, align 8
  %17 = getelementptr inbounds %struct.hb_draw_state_t, ptr %16, i32 0, i32 0
  store i32 1, ptr %17, align 4
  %18 = load ptr, ptr %6, align 8
  %19 = getelementptr inbounds %struct.hb_draw_state_t, ptr %18, i32 0, i32 3
  %20 = load float, ptr %19, align 4
  %21 = load ptr, ptr %6, align 8
  %22 = getelementptr inbounds %struct.hb_draw_state_t, ptr %21, i32 0, i32 1
  store float %20, ptr %22, align 4
  %23 = load ptr, ptr %6, align 8
  %24 = getelementptr inbounds %struct.hb_draw_state_t, ptr %23, i32 0, i32 4
  %25 = load float, ptr %24, align 4
  %26 = load ptr, ptr %6, align 8
  %27 = getelementptr inbounds %struct.hb_draw_state_t, ptr %26, i32 0, i32 2
  store float %25, ptr %27, align 4
  ret void
}

; Function Attrs: mustprogress uwtable
define hidden void @hb_draw_cubic_to(ptr noundef %0, ptr noundef %1, ptr noundef %2, float noundef %3, float noundef %4, float noundef %5, float noundef %6, float noundef %7, float noundef %8) #0 {
  %10 = alloca ptr, align 8
  %11 = alloca ptr, align 8
  %12 = alloca ptr, align 8
  %13 = alloca float, align 4
  %14 = alloca float, align 4
  %15 = alloca float, align 4
  %16 = alloca float, align 4
  %17 = alloca float, align 4
  %18 = alloca float, align 4
  %19 = alloca ptr, align 8
  %20 = alloca ptr, align 8
  %21 = alloca ptr, align 8
  %22 = alloca float, align 4
  %23 = alloca float, align 4
  %24 = alloca float, align 4
  %25 = alloca float, align 4
  %26 = alloca float, align 4
  %27 = alloca float, align 4
  store ptr %0, ptr %19, align 8
  store ptr %1, ptr %20, align 8
  store ptr %2, ptr %21, align 8
  store float %3, ptr %22, align 4
  store float %4, ptr %23, align 4
  store float %5, ptr %24, align 4
  store float %6, ptr %25, align 4
  store float %7, ptr %26, align 4
  store float %8, ptr %27, align 4
  %28 = load ptr, ptr %19, align 8
  %29 = load ptr, ptr %20, align 8
  %30 = load ptr, ptr %21, align 8
  %31 = load float, ptr %22, align 4
  %32 = load float, ptr %23, align 4
  %33 = load float, ptr %24, align 4
  %34 = load float, ptr %25, align 4
  %35 = load float, ptr %26, align 4
  %36 = load float, ptr %27, align 4
  store ptr %28, ptr %10, align 8
  store ptr %29, ptr %11, align 8
  store ptr %30, ptr %12, align 8
  store float %31, ptr %13, align 4
  store float %32, ptr %14, align 4
  store float %33, ptr %15, align 4
  store float %34, ptr %16, align 4
  store float %35, ptr %17, align 4
  store float %36, ptr %18, align 4
  %37 = load ptr, ptr %10, align 8
  %38 = load ptr, ptr %12, align 8
  %39 = load i32, ptr %38, align 4
  %40 = icmp ne i32 %39, 0
  br i1 %40, label %44, label %41

41:                                               ; preds = %9
  %42 = load ptr, ptr %11, align 8
  %43 = load ptr, ptr %12, align 8
  call void @_ZN15hb_draw_funcs_t10start_pathEPvR15hb_draw_state_t(ptr noundef nonnull align 8 dereferenceable(72) %37, ptr noundef %42, ptr noundef nonnull align 4 dereferenceable(48) %43)
  br label %44

44:                                               ; preds = %41, %9
  %45 = load ptr, ptr %11, align 8
  %46 = load ptr, ptr %12, align 8
  %47 = load float, ptr %13, align 4
  %48 = load float, ptr %14, align 4
  %49 = load float, ptr %15, align 4
  %50 = load float, ptr %16, align 4
  %51 = load float, ptr %17, align 4
  %52 = load float, ptr %18, align 4
  call void @_ZN15hb_draw_funcs_t13emit_cubic_toEPvR15hb_draw_state_tffffff(ptr noundef nonnull align 8 dereferenceable(72) %37, ptr noundef %45, ptr noundef nonnull align 4 dereferenceable(48) %46, float noundef %47, float noundef %48, float noundef %49, float noundef %50, float noundef %51, float noundef %52)
  %53 = load float, ptr %17, align 4
  %54 = load ptr, ptr %12, align 8
  %55 = getelementptr inbounds %struct.hb_draw_state_t, ptr %54, i32 0, i32 3
  store float %53, ptr %55, align 4
  %56 = load float, ptr %18, align 4
  %57 = load ptr, ptr %12, align 8
  %58 = getelementptr inbounds %struct.hb_draw_state_t, ptr %57, i32 0, i32 4
  store float %56, ptr %58, align 4
  ret void
}