; Function Attrs: mustprogress uwtable
define hidden void @hb_draw_cubic_to(ptr noundef %0, ptr noundef %1, ptr noundef %2, float noundef %3, float noundef %4, float noundef %5, float noundef %6, float noundef %7, float noundef %8) local_unnamed_addr #0 {
  %10 = load i32, ptr %2, align 4
  %.not = icmp eq i32 %10, 0
  br i1 %.not, label %11, label %25

11:                                               ; preds = %9
  %12 = getelementptr inbounds i8, ptr %2, i64 12
  %13 = load float, ptr %12, align 4
  %14 = getelementptr inbounds i8, ptr %2, i64 16
  %15 = load float, ptr %14, align 4
  %16 = getelementptr inbounds i8, ptr %0, i64 16
  %17 = load ptr, ptr %16, align 8
  %18 = getelementptr inbounds i8, ptr %0, i64 56
  %19 = load ptr, ptr %18, align 8
  %.not.i.i = icmp eq ptr %19, null
  br i1 %.not.i.i, label %_ZN15hb_draw_funcs_t10start_pathEPvR15hb_draw_state_t.exit, label %20

20:                                               ; preds = %11
  %21 = load ptr, ptr %19, align 8
  br label %_ZN15hb_draw_funcs_t10start_pathEPvR15hb_draw_state_t.exit

_ZN15hb_draw_funcs_t10start_pathEPvR15hb_draw_state_t.exit: ; preds = %11, %20
  %22 = phi ptr [ %21, %20 ], [ null, %11 ]
  tail call void %17(ptr noundef nonnull %0, ptr noundef %1, ptr noundef nonnull %2, float noundef %13, float noundef %15, ptr noundef %22)
  store i32 1, ptr %2, align 4
  %23 = getelementptr inbounds i8, ptr %2, i64 4
  %24 = load <2 x float>, ptr %12, align 4
  store <2 x float> %24, ptr %23, align 4
  br label %25

25:                                               ; preds = %_ZN15hb_draw_funcs_t10start_pathEPvR15hb_draw_state_t.exit, %9
  %26 = getelementptr inbounds i8, ptr %0, i64 40
  %27 = load ptr, ptr %26, align 8
  %28 = getelementptr inbounds i8, ptr %0, i64 56
  %29 = load ptr, ptr %28, align 8
  %.not.i = icmp eq ptr %29, null
  br i1 %.not.i, label %_ZN15hb_draw_funcs_t13emit_cubic_toEPvR15hb_draw_state_tffffff.exit, label %30

30:                                               ; preds = %25
  %31 = getelementptr inbounds i8, ptr %29, i64 24
  %32 = load ptr, ptr %31, align 8
  br label %_ZN15hb_draw_funcs_t13emit_cubic_toEPvR15hb_draw_state_tffffff.exit

_ZN15hb_draw_funcs_t13emit_cubic_toEPvR15hb_draw_state_tffffff.exit: ; preds = %25, %30
  %33 = phi ptr [ %32, %30 ], [ null, %25 ]
  tail call void %27(ptr noundef nonnull %0, ptr noundef %1, ptr noundef nonnull %2, float noundef %3, float noundef %4, float noundef %5, float noundef %6, float noundef %7, float noundef %8, ptr noundef %33)
  %34 = getelementptr inbounds i8, ptr %2, i64 12
  store float %7, ptr %34, align 4
  %35 = getelementptr inbounds i8, ptr %2, i64 16
  store float %8, ptr %35, align 4
  ret void
}